
image:     file format elf32-lm32

Sections:
Idx Name          Size      VMA       LMA       File off  Algn
  0 .text         00000470  00000000  00000000  00000054  2**2
                  CONTENTS, ALLOC, LOAD, CODE
  1 .rodata       00000004  00000470  00000470  000004c4  2**2
                  CONTENTS, ALLOC, LOAD, READONLY, DATA
  2 .data         00000010  00000474  00000474  000004c8  2**2
                  CONTENTS, ALLOC, LOAD, DATA
  3 .bss          00000084  00000484  00000484  000004d8  2**2
                  ALLOC
  4 .debug_abbrev 000001dc  00000000  00000000  000004d8  2**0
                  CONTENTS, READONLY, DEBUGGING
  5 .debug_info   00000537  00000000  00000000  000006b4  2**0
                  CONTENTS, READONLY, DEBUGGING
  6 .debug_line   00000301  00000000  00000000  00000beb  2**0
                  CONTENTS, READONLY, DEBUGGING
  7 .debug_frame  00000120  00000000  00000000  00000eec  2**2
                  CONTENTS, READONLY, DEBUGGING
  8 .debug_pubnames 00000144  00000000  00000000  0000100c  2**0
                  CONTENTS, READONLY, DEBUGGING
  9 .debug_pubtypes 0000006b  00000000  00000000  00001150  2**0
                  CONTENTS, READONLY, DEBUGGING
 10 .debug_aranges 00000040  00000000  00000000  000011bb  2**0
                  CONTENTS, READONLY, DEBUGGING
 11 .debug_str    000001ea  00000000  00000000  000011fb  2**0
                  CONTENTS, READONLY, DEBUGGING
 12 .comment      00000011  00000000  00000000  000013e5  2**0
                  CONTENTS, READONLY
 13 .debug_loc    000000fc  00000000  00000000  000013f6  2**0
                  CONTENTS, READONLY, DEBUGGING
 14 .debug_ranges 00000018  00000000  00000000  000014f2  2**0
                  CONTENTS, READONLY, DEBUGGING

Disassembly of section .text:

00000000 <_ftext>:
   0:	98 00 00 00 	xor r0,r0,r0
   4:	d0 00 00 00 	wcsr IE,r0
   8:	78 01 00 00 	mvhi r1,0x0
   c:	38 21 00 00 	ori r1,r1,0x0
  10:	d0 e1 00 00 	wcsr EBA,r1
  14:	f8 00 00 3b 	calli 100 <_crt0>
  18:	34 00 00 00 	nop
  1c:	34 00 00 00 	nop

00000020 <_breakpoint_handler>:
  20:	34 00 00 00 	nop
  24:	34 00 00 00 	nop
  28:	34 00 00 00 	nop
  2c:	34 00 00 00 	nop
  30:	34 00 00 00 	nop
  34:	34 00 00 00 	nop
  38:	34 00 00 00 	nop
  3c:	34 00 00 00 	nop

00000040 <_ibuserror_handler>:
  40:	34 00 00 00 	nop
  44:	34 00 00 00 	nop
  48:	34 00 00 00 	nop
  4c:	34 00 00 00 	nop
  50:	34 00 00 00 	nop
  54:	34 00 00 00 	nop
  58:	34 00 00 00 	nop
  5c:	34 00 00 00 	nop

00000060 <_watchpoint_handler>:
  60:	34 00 00 00 	nop
  64:	34 00 00 00 	nop
  68:	34 00 00 00 	nop
  6c:	34 00 00 00 	nop
  70:	34 00 00 00 	nop
  74:	34 00 00 00 	nop
  78:	34 00 00 00 	nop
  7c:	34 00 00 00 	nop

00000080 <_dbuserror_handler>:
  80:	34 00 00 00 	nop
  84:	34 00 00 00 	nop
  88:	34 00 00 00 	nop
  8c:	34 00 00 00 	nop
  90:	34 00 00 00 	nop
  94:	34 00 00 00 	nop
  98:	34 00 00 00 	nop
  9c:	34 00 00 00 	nop

000000a0 <_divzero_handler>:
  a0:	34 00 00 00 	nop
  a4:	34 00 00 00 	nop
  a8:	34 00 00 00 	nop
  ac:	34 00 00 00 	nop
  b0:	34 00 00 00 	nop
  b4:	34 00 00 00 	nop
  b8:	34 00 00 00 	nop
  bc:	34 00 00 00 	nop

000000c0 <_interrupt_handler>:
  c0:	5b 9d 00 00 	sw (sp+0),ra
  c4:	f8 00 00 2b 	calli 170 <_save_all>
  c8:	90 40 08 00 	rcsr r1,IP
  cc:	f8 00 00 6d 	calli 280 <irq_handler>
  d0:	78 01 ff ff 	mvhi r1,0xffff
  d4:	38 21 ff ff 	ori r1,r1,0xffff
  d8:	d0 41 00 00 	wcsr IP,r1
  dc:	e0 00 00 38 	bi 1bc <_restore_all_and_eret>

000000e0 <_scall_handler>:
  e0:	34 00 00 00 	nop
  e4:	34 00 00 00 	nop
  e8:	34 00 00 00 	nop
  ec:	34 00 00 00 	nop
  f0:	34 00 00 00 	nop
  f4:	34 00 00 00 	nop
  f8:	34 00 00 00 	nop
  fc:	34 00 00 00 	nop

00000100 <_crt0>:
 100:	78 1c 00 00 	mvhi sp,0x0
 104:	3b 9c 0f fc 	ori sp,sp,0xffc
 108:	78 1a 00 00 	mvhi gp,0x0
 10c:	3b 5a 04 90 	ori gp,gp,0x490
 110:	78 01 00 00 	mvhi r1,0x0
 114:	38 21 04 84 	ori r1,r1,0x484
 118:	78 03 00 00 	mvhi r3,0x0
 11c:	38 63 05 08 	ori r3,r3,0x508

00000120 <.clearBSS>:
 120:	44 23 00 04 	be r1,r3,130 <.callMain>
 124:	58 20 00 00 	sw (r1+0),r0
 128:	34 21 00 04 	addi r1,r1,4
 12c:	e3 ff ff fd 	bi 120 <.clearBSS>

00000130 <.callMain>:
 130:	34 01 00 00 	mvi r1,0
 134:	34 02 00 00 	mvi r2,0
 138:	34 03 00 00 	mvi r3,0
 13c:	f8 00 00 33 	calli 208 <main>

00000140 <irq_enable>:
 140:	34 01 00 01 	mvi r1,1
 144:	d0 01 00 00 	wcsr IE,r1
 148:	c3 a0 00 00 	ret

0000014c <irq_disable>:
 14c:	34 01 00 00 	mvi r1,0
 150:	d0 01 00 00 	wcsr IE,r1
 154:	c3 a0 00 00 	ret

00000158 <irq_set_mask>:
 158:	d0 21 00 00 	wcsr IM,r1
 15c:	c3 a0 00 00 	ret

00000160 <irq_get_mask>:
 160:	90 20 08 00 	rcsr r1,IM
 164:	c3 a0 00 00 	ret

00000168 <jump>:
 168:	c0 20 00 00 	b r1

0000016c <halt>:
 16c:	e0 00 00 00 	bi 16c <halt>

00000170 <_save_all>:
 170:	37 9c ff 80 	addi sp,sp,-128
 174:	5b 81 00 04 	sw (sp+4),r1
 178:	5b 82 00 08 	sw (sp+8),r2
 17c:	5b 83 00 0c 	sw (sp+12),r3
 180:	5b 84 00 10 	sw (sp+16),r4
 184:	5b 85 00 14 	sw (sp+20),r5
 188:	5b 86 00 18 	sw (sp+24),r6
 18c:	5b 87 00 1c 	sw (sp+28),r7
 190:	5b 88 00 20 	sw (sp+32),r8
 194:	5b 89 00 24 	sw (sp+36),r9
 198:	5b 8a 00 28 	sw (sp+40),r10
 19c:	5b 9e 00 78 	sw (sp+120),ea
 1a0:	5b 9f 00 7c 	sw (sp+124),ba
 1a4:	2b 81 00 80 	lw r1,(sp+128)
 1a8:	5b 81 00 74 	sw (sp+116),r1
 1ac:	bb 80 08 00 	mv r1,sp
 1b0:	34 21 00 80 	addi r1,r1,128
 1b4:	5b 81 00 70 	sw (sp+112),r1
 1b8:	c3 a0 00 00 	ret

000001bc <_restore_all_and_eret>:
 1bc:	2b 81 00 04 	lw r1,(sp+4)
 1c0:	2b 82 00 08 	lw r2,(sp+8)
 1c4:	2b 83 00 0c 	lw r3,(sp+12)
 1c8:	2b 84 00 10 	lw r4,(sp+16)
 1cc:	2b 85 00 14 	lw r5,(sp+20)
 1d0:	2b 86 00 18 	lw r6,(sp+24)
 1d4:	2b 87 00 1c 	lw r7,(sp+28)
 1d8:	2b 88 00 20 	lw r8,(sp+32)
 1dc:	2b 89 00 24 	lw r9,(sp+36)
 1e0:	2b 8a 00 28 	lw r10,(sp+40)
 1e4:	2b 9d 00 74 	lw ra,(sp+116)
 1e8:	2b 9e 00 78 	lw ea,(sp+120)
 1ec:	2b 9f 00 7c 	lw ba,(sp+124)
 1f0:	2b 9c 00 70 	lw sp,(sp+112)
 1f4:	c3 c0 00 00 	eret

000001f8 <get_sp>:
 1f8:	bb 80 08 00 	mv r1,sp
 1fc:	c3 a0 00 00 	ret

00000200 <get_gp>:
 200:	bb 40 08 00 	mv r1,gp
 204:	c3 a0 00 00 	ret

00000208 <main>:
#include "soc-hw.h"


int main()
{
 208:	37 9c ff fc 	addi sp,sp,-4
 20c:	5b 9d 00 04 	sw (sp+4),ra

//	gpio0->read = 0x000000ff;
	
	prueba();
 210:	f8 00 00 10 	calli 250 <prueba>
	for(;;)
	{
		prueba1();
 214:	f8 00 00 15 	calli 268 <prueba1>
 218:	f8 00 00 14 	calli 268 <prueba1>
 21c:	e3 ff ff fe 	bi 214 <main+0xc>

00000220 <isr_null>:
/***************************************************************************
 * IRQ handling
 */
void isr_null()
{
}
 220:	c3 a0 00 00 	ret

00000224 <tic_isr>:

uint32_t tic_msec;

void tic_isr()
{
	tic_msec++;
 224:	78 01 00 00 	mvhi r1,0x0
 228:	38 21 05 04 	ori r1,r1,0x504
 22c:	28 23 00 00 	lw r3,(r1+0)
	timer0->tcr0     = TIMER_EN | TIMER_AR | TIMER_IRQEN;
 230:	78 02 00 00 	mvhi r2,0x0
 234:	38 42 04 78 	ori r2,r2,0x478
 238:	28 42 00 00 	lw r2,(r2+0)

uint32_t tic_msec;

void tic_isr()
{
	tic_msec++;
 23c:	34 63 00 01 	addi r3,r3,1
 240:	58 23 00 00 	sw (r1+0),r3
	timer0->tcr0     = TIMER_EN | TIMER_AR | TIMER_IRQEN;
 244:	34 01 00 0e 	mvi r1,14
 248:	58 41 00 00 	sw (r2+0),r1
}
 24c:	c3 a0 00 00 	ret

00000250 <prueba>:

void prueba()
{
//	   uart0->rxtx=30;
//	   timer0->tcr0 = 0xAA;
	   gpio0->dir=0x0F; 
 250:	78 01 00 00 	mvhi r1,0x0
 254:	38 21 04 7c 	ori r1,r1,0x47c
 258:	28 21 00 00 	lw r1,(r1+0)
 25c:	34 02 00 0f 	mvi r2,15
 260:	58 22 00 08 	sw (r1+8),r2
}
 264:	c3 a0 00 00 	ret

00000268 <prueba1>:
void prueba1()
{
           gpio0->write = 0xFF;
 268:	78 01 00 00 	mvhi r1,0x0
 26c:	38 21 04 7c 	ori r1,r1,0x47c
 270:	28 21 00 00 	lw r1,(r1+0)
 274:	34 02 00 ff 	mvi r2,255
 278:	58 22 00 04 	sw (r1+4),r2
}
 27c:	c3 a0 00 00 	ret

00000280 <irq_handler>:
void isr_null()
{
}

void irq_handler(uint32_t pending)
{
 280:	37 9c ff f0 	addi sp,sp,-16
 284:	5b 8b 00 10 	sw (sp+16),r11
 288:	5b 8c 00 0c 	sw (sp+12),r12
 28c:	5b 8d 00 08 	sw (sp+8),r13
 290:	5b 9d 00 04 	sw (sp+4),ra
 294:	78 0b 00 00 	mvhi r11,0x0
 298:	39 6b 04 84 	ori r11,r11,0x484
 29c:	b8 20 60 00 	mv r12,r1
 */
void isr_null()
{
}

void irq_handler(uint32_t pending)
 2a0:	35 6d 00 80 	addi r13,r11,128
 2a4:	e0 00 00 04 	bi 2b4 <irq_handler+0x34>
{
	int i;

	for(i=0; i<32; i++) {
		if (pending & 0x01) (*isr_table[i])();
 2a8:	35 6b 00 04 	addi r11,r11,4

void irq_handler(uint32_t pending)
{
	int i;

	for(i=0; i<32; i++) {
 2ac:	45 6d 00 08 	be r11,r13,2cc <irq_handler+0x4c>
		if (pending & 0x01) (*isr_table[i])();
		pending >>= 1;
 2b0:	01 8c 00 01 	srui r12,r12,1
void irq_handler(uint32_t pending)
{
	int i;

	for(i=0; i<32; i++) {
		if (pending & 0x01) (*isr_table[i])();
 2b4:	21 81 00 01 	andi r1,r12,0x1
 2b8:	44 20 ff fc 	be r1,r0,2a8 <irq_handler+0x28>
 2bc:	29 61 00 00 	lw r1,(r11+0)
 2c0:	35 6b 00 04 	addi r11,r11,4
 2c4:	d8 20 00 00 	call r1

void irq_handler(uint32_t pending)
{
	int i;

	for(i=0; i<32; i++) {
 2c8:	5d 6d ff fa 	bne r11,r13,2b0 <irq_handler+0x30>
		if (pending & 0x01) (*isr_table[i])();
		pending >>= 1;
	}
}
 2cc:	2b 9d 00 04 	lw ra,(sp+4)
 2d0:	2b 8b 00 10 	lw r11,(sp+16)
 2d4:	2b 8c 00 0c 	lw r12,(sp+12)
 2d8:	2b 8d 00 08 	lw r13,(sp+8)
 2dc:	37 9c 00 10 	addi sp,sp,16
 2e0:	c3 a0 00 00 	ret

000002e4 <isr_init>:

void isr_init()
{
 2e4:	78 01 00 00 	mvhi r1,0x0
 2e8:	78 02 00 00 	mvhi r2,0x0
 2ec:	38 21 04 84 	ori r1,r1,0x484
 2f0:	38 42 02 20 	ori r2,r2,0x220
		if (pending & 0x01) (*isr_table[i])();
		pending >>= 1;
	}
}

void isr_init()
 2f4:	34 23 00 80 	addi r3,r1,128
{
	int i;
	for(i=0; i<32; i++)
		isr_table[i] = &isr_null;
 2f8:	58 22 00 00 	sw (r1+0),r2
 2fc:	34 21 00 04 	addi r1,r1,4
}

void isr_init()
{
	int i;
	for(i=0; i<32; i++)
 300:	5c 23 ff fe 	bne r1,r3,2f8 <isr_init+0x14>
		isr_table[i] = &isr_null;
}
 304:	c3 a0 00 00 	ret

00000308 <isr_register>:

void isr_register(int irq, isr_ptr_t isr)
{
	isr_table[irq] = isr;
 308:	78 03 00 00 	mvhi r3,0x0
 30c:	3c 21 00 02 	sli r1,r1,2
 310:	38 63 04 84 	ori r3,r3,0x484
 314:	b4 61 18 00 	add r3,r3,r1
 318:	58 62 00 00 	sw (r3+0),r2
}
 31c:	c3 a0 00 00 	ret

00000320 <isr_unregister>:

void isr_unregister(int irq)
{
	isr_table[irq] = &isr_null;
 320:	78 03 00 00 	mvhi r3,0x0
 324:	3c 21 00 02 	sli r1,r1,2
 328:	38 63 04 84 	ori r3,r3,0x484
 32c:	78 02 00 00 	mvhi r2,0x0
 330:	b4 61 18 00 	add r3,r3,r1
 334:	38 42 02 20 	ori r2,r2,0x220
 338:	58 62 00 00 	sw (r3+0),r2
}
 33c:	c3 a0 00 00 	ret

00000340 <msleep>:
void msleep(uint32_t msec)
{
	uint32_t tcr;

	// Use timer0.1
	timer0->compare1 = (FCPU/1000)*msec;
 340:	78 04 00 00 	mvhi r4,0x0
 344:	38 84 04 70 	ori r4,r4,0x470
 348:	28 83 00 00 	lw r3,(r4+0)
 34c:	78 02 00 00 	mvhi r2,0x0
 350:	38 42 04 78 	ori r2,r2,0x478
 354:	28 42 00 00 	lw r2,(r2+0)
 358:	88 23 08 00 	mul r1,r1,r3
 35c:	58 41 00 10 	sw (r2+16),r1
	timer0->counter1 = 0;
 360:	58 40 00 14 	sw (r2+20),r0
	timer0->tcr1 = TIMER_EN;
 364:	34 01 00 08 	mvi r1,8
 368:	58 41 00 0c 	sw (r2+12),r1

	do {
		//halt();
 		tcr = timer0->tcr1;
 36c:	28 41 00 0c 	lw r1,(r2+12)
 	} while ( ! (tcr & TIMER_TRIG) );
 370:	20 21 00 01 	andi r1,r1,0x1
 374:	44 20 ff fe 	be r1,r0,36c <msleep+0x2c>
}
 378:	c3 a0 00 00 	ret

0000037c <nsleep>:
void nsleep(uint32_t nsec)
{
	uint32_t tcr;

	// Use timer0.1
	timer0->compare1 = (FCPU/1000000)*nsec;
 37c:	78 02 00 00 	mvhi r2,0x0
 380:	38 42 04 78 	ori r2,r2,0x478
 384:	28 42 00 00 	lw r2,(r2+0)
 388:	08 21 00 64 	muli r1,r1,100
 38c:	58 41 00 10 	sw (r2+16),r1
	timer0->counter1 = 0;
 390:	58 40 00 14 	sw (r2+20),r0
	timer0->tcr1 = TIMER_EN;
 394:	34 01 00 08 	mvi r1,8
 398:	58 41 00 0c 	sw (r2+12),r1

	do {
		//halt();
 		tcr = timer0->tcr1;
 39c:	28 41 00 0c 	lw r1,(r2+12)
 	} while ( ! (tcr & TIMER_TRIG) );
 3a0:	20 21 00 01 	andi r1,r1,0x1
 3a4:	44 20 ff fe 	be r1,r0,39c <nsleep+0x20>
}
 3a8:	c3 a0 00 00 	ret

000003ac <tic_init>:
void tic_init()
{
	tic_msec = 0;

	// Setup timer0.0
	timer0->compare0 = (FCPU/10000);
 3ac:	78 01 00 00 	mvhi r1,0x0
 3b0:	38 21 04 78 	ori r1,r1,0x478
 3b4:	28 23 00 00 	lw r3,(r1+0)
 3b8:	34 02 27 10 	mvi r2,10000
	timer0->tcr0     = TIMER_EN | TIMER_AR | TIMER_IRQEN;
}

void tic_init()
{
	tic_msec = 0;
 3bc:	78 01 00 00 	mvhi r1,0x0

	// Setup timer0.0
	timer0->compare0 = (FCPU/10000);
 3c0:	58 62 00 04 	sw (r3+4),r2
	timer0->tcr0     = TIMER_EN | TIMER_AR | TIMER_IRQEN;
}

void tic_init()
{
	tic_msec = 0;
 3c4:	38 21 05 04 	ori r1,r1,0x504

	// Setup timer0.0
	timer0->compare0 = (FCPU/10000);
	timer0->counter0 = 0;
 3c8:	58 60 00 08 	sw (r3+8),r0
	timer0->tcr0     = TIMER_EN | TIMER_AR | TIMER_IRQEN;
}

void tic_init()
{
	tic_msec = 0;
 3cc:	58 20 00 00 	sw (r1+0),r0
		isr_table[i] = &isr_null;
}

void isr_register(int irq, isr_ptr_t isr)
{
	isr_table[irq] = isr;
 3d0:	78 02 00 00 	mvhi r2,0x0
 3d4:	78 01 00 00 	mvhi r1,0x0
	tic_msec = 0;

	// Setup timer0.0
	timer0->compare0 = (FCPU/10000);
	timer0->counter0 = 0;
	timer0->tcr0     = TIMER_EN | TIMER_AR | TIMER_IRQEN;
 3d8:	34 04 00 0e 	mvi r4,14
 3dc:	58 64 00 00 	sw (r3+0),r4
		isr_table[i] = &isr_null;
}

void isr_register(int irq, isr_ptr_t isr)
{
	isr_table[irq] = isr;
 3e0:	38 21 04 84 	ori r1,r1,0x484
 3e4:	38 42 02 24 	ori r2,r2,0x224
 3e8:	58 22 00 04 	sw (r1+4),r2
	timer0->compare0 = (FCPU/10000);
	timer0->counter0 = 0;
	timer0->tcr0     = TIMER_EN | TIMER_AR | TIMER_IRQEN;

	isr_register(1, &tic_isr);
}
 3ec:	c3 a0 00 00 	ret

000003f0 <uart_init>:
	//uart0->lcr = 0x03;  // Line Control Register:    8N1
	//uart0->mcr = 0x00;  // Modem Control Register

	// Setup Divisor register (Fclk / Baud)
	//uart0->div = (FCPU/(57600*16));
}
 3f0:	c3 a0 00 00 	ret

000003f4 <uart_getchar>:

char uart_getchar()
{   
 3f4:	78 01 00 00 	mvhi r1,0x0
 3f8:	38 21 04 74 	ori r1,r1,0x474
 3fc:	28 22 00 00 	lw r2,(r1+0)
	while (! (uart0->ucr & UART_DR)) ;
 400:	28 41 00 00 	lw r1,(r2+0)
 404:	20 21 00 01 	andi r1,r1,0x1
 408:	44 20 ff fe 	be r1,r0,400 <uart_getchar+0xc>
	return uart0->rxtx;
 40c:	28 41 00 04 	lw r1,(r2+4)
}
 410:	20 21 00 ff 	andi r1,r1,0xff
 414:	c3 a0 00 00 	ret

00000418 <uart_putchar>:

void uart_putchar(char c)
{
 418:	78 02 00 00 	mvhi r2,0x0
 41c:	38 42 04 74 	ori r2,r2,0x474
 420:	28 43 00 00 	lw r3,(r2+0)
 424:	20 21 00 ff 	andi r1,r1,0xff
	while (uart0->ucr & UART_BUSY) ;
 428:	28 62 00 00 	lw r2,(r3+0)
 42c:	20 42 00 10 	andi r2,r2,0x10
 430:	5c 40 ff fe 	bne r2,r0,428 <uart_putchar+0x10>
	uart0->rxtx = c;
 434:	58 61 00 04 	sw (r3+4),r1
}
 438:	c3 a0 00 00 	ret

0000043c <uart_putstr>:

void uart_putstr(char *str)
{
	char *c = str;
	while(*c) {
 43c:	40 24 00 00 	lbu r4,(r1+0)
 440:	44 80 00 0b 	be r4,r0,46c <uart_putstr+0x30>
 444:	78 02 00 00 	mvhi r2,0x0
 448:	38 42 04 74 	ori r2,r2,0x474
 44c:	28 43 00 00 	lw r3,(r2+0)
	return uart0->rxtx;
}

void uart_putchar(char c)
{
	while (uart0->ucr & UART_BUSY) ;
 450:	28 62 00 00 	lw r2,(r3+0)
 454:	20 42 00 10 	andi r2,r2,0x10
 458:	5c 40 ff fe 	bne r2,r0,450 <uart_putstr+0x14>
	uart0->rxtx = c;
 45c:	58 64 00 04 	sw (r3+4),r4
void uart_putstr(char *str)
{
	char *c = str;
	while(*c) {
		uart_putchar(*c);
		c++;
 460:	34 21 00 01 	addi r1,r1,1
}

void uart_putstr(char *str)
{
	char *c = str;
	while(*c) {
 464:	40 24 00 00 	lbu r4,(r1+0)
 468:	5c 82 ff fa 	bne r4,r2,450 <uart_putstr+0x14>
 46c:	c3 a0 00 00 	ret
