
image:     file format elf32-lm32

Sections:
Idx Name          Size      VMA       LMA       File off  Algn
  0 .text         000006b0  00000000  00000000  00000054  2**2
                  CONTENTS, ALLOC, LOAD, CODE
  1 .rodata       00000004  000006b0  000006b0  00000704  2**2
                  CONTENTS, ALLOC, LOAD, READONLY, DATA
  2 .data         00000010  000006b4  000006b4  00000708  2**2
                  CONTENTS, ALLOC, LOAD, DATA
  3 .bss          00000084  000006c4  000006c4  00000718  2**2
                  ALLOC
  4 .debug_abbrev 0000036c  00000000  00000000  00000718  2**0
                  CONTENTS, READONLY, DEBUGGING
  5 .debug_info   0000086e  00000000  00000000  00000a84  2**0
                  CONTENTS, READONLY, DEBUGGING
  6 .debug_line   0000059d  00000000  00000000  000012f2  2**0
                  CONTENTS, READONLY, DEBUGGING
  7 .debug_frame  000001a0  00000000  00000000  00001890  2**2
                  CONTENTS, READONLY, DEBUGGING
  8 .debug_pubnames 000001bc  00000000  00000000  00001a30  2**0
                  CONTENTS, READONLY, DEBUGGING
  9 .debug_pubtypes 000000ad  00000000  00000000  00001bec  2**0
                  CONTENTS, READONLY, DEBUGGING
 10 .debug_aranges 00000060  00000000  00000000  00001c99  2**0
                  CONTENTS, READONLY, DEBUGGING
 11 .debug_str    00000210  00000000  00000000  00001cf9  2**0
                  CONTENTS, READONLY, DEBUGGING
 12 .comment      00000011  00000000  00000000  00001f09  2**0
                  CONTENTS, READONLY
 13 .debug_loc    0000026d  00000000  00000000  00001f1a  2**0
                  CONTENTS, READONLY, DEBUGGING
 14 .debug_ranges 00000090  00000000  00000000  00002187  2**0
                  CONTENTS, READONLY, DEBUGGING

Disassembly of section .text:

00000000 <_ftext>:
   0:	98 00 00 00 	xor r0,r0,r0
   4:	d0 00 00 00 	wcsr IE,r0
   8:	78 01 00 00 	mvhi r1,0x0
   c:	38 21 00 00 	ori r1,r1,0x0
  10:	d0 e1 00 00 	wcsr EBA,r1
  14:	f8 00 00 3b 	calli 100 <_crt0>
  18:	34 00 00 00 	nop
  1c:	34 00 00 00 	nop

00000020 <_breakpoint_handler>:
  20:	34 00 00 00 	nop
  24:	34 00 00 00 	nop
  28:	34 00 00 00 	nop
  2c:	34 00 00 00 	nop
  30:	34 00 00 00 	nop
  34:	34 00 00 00 	nop
  38:	34 00 00 00 	nop
  3c:	34 00 00 00 	nop

00000040 <_ibuserror_handler>:
  40:	34 00 00 00 	nop
  44:	34 00 00 00 	nop
  48:	34 00 00 00 	nop
  4c:	34 00 00 00 	nop
  50:	34 00 00 00 	nop
  54:	34 00 00 00 	nop
  58:	34 00 00 00 	nop
  5c:	34 00 00 00 	nop

00000060 <_watchpoint_handler>:
  60:	34 00 00 00 	nop
  64:	34 00 00 00 	nop
  68:	34 00 00 00 	nop
  6c:	34 00 00 00 	nop
  70:	34 00 00 00 	nop
  74:	34 00 00 00 	nop
  78:	34 00 00 00 	nop
  7c:	34 00 00 00 	nop

00000080 <_dbuserror_handler>:
  80:	34 00 00 00 	nop
  84:	34 00 00 00 	nop
  88:	34 00 00 00 	nop
  8c:	34 00 00 00 	nop
  90:	34 00 00 00 	nop
  94:	34 00 00 00 	nop
  98:	34 00 00 00 	nop
  9c:	34 00 00 00 	nop

000000a0 <_divzero_handler>:
  a0:	34 00 00 00 	nop
  a4:	34 00 00 00 	nop
  a8:	34 00 00 00 	nop
  ac:	34 00 00 00 	nop
  b0:	34 00 00 00 	nop
  b4:	34 00 00 00 	nop
  b8:	34 00 00 00 	nop
  bc:	34 00 00 00 	nop

000000c0 <_interrupt_handler>:
  c0:	5b 9d 00 00 	sw (sp+0),ra
  c4:	f8 00 00 2b 	calli 170 <_save_all>
  c8:	90 40 08 00 	rcsr r1,IP
  cc:	f8 00 00 73 	calli 298 <irq_handler>
  d0:	78 01 ff ff 	mvhi r1,0xffff
  d4:	38 21 ff ff 	ori r1,r1,0xffff
  d8:	d0 41 00 00 	wcsr IP,r1
  dc:	e0 00 00 38 	bi 1bc <_restore_all_and_eret>

000000e0 <_scall_handler>:
  e0:	34 00 00 00 	nop
  e4:	34 00 00 00 	nop
  e8:	34 00 00 00 	nop
  ec:	34 00 00 00 	nop
  f0:	34 00 00 00 	nop
  f4:	34 00 00 00 	nop
  f8:	34 00 00 00 	nop
  fc:	34 00 00 00 	nop

00000100 <_crt0>:
 100:	78 1c 00 00 	mvhi sp,0x0
 104:	3b 9c 0f fc 	ori sp,sp,0xffc
 108:	78 1a 00 00 	mvhi gp,0x0
 10c:	3b 5a 06 d0 	ori gp,gp,0x6d0
 110:	78 01 00 00 	mvhi r1,0x0
 114:	38 21 06 c4 	ori r1,r1,0x6c4
 118:	78 03 00 00 	mvhi r3,0x0
 11c:	38 63 07 48 	ori r3,r3,0x748

00000120 <.clearBSS>:
 120:	44 23 00 04 	be r1,r3,130 <.callMain>
 124:	58 20 00 00 	sw (r1+0),r0
 128:	34 21 00 04 	addi r1,r1,4
 12c:	e3 ff ff fd 	bi 120 <.clearBSS>

00000130 <.callMain>:
 130:	34 01 00 00 	mvi r1,0
 134:	34 02 00 00 	mvi r2,0
 138:	34 03 00 00 	mvi r3,0
 13c:	f8 00 00 33 	calli 208 <main>

00000140 <irq_enable>:
 140:	34 01 00 01 	mvi r1,1
 144:	d0 01 00 00 	wcsr IE,r1
 148:	c3 a0 00 00 	ret

0000014c <irq_disable>:
 14c:	34 01 00 00 	mvi r1,0
 150:	d0 01 00 00 	wcsr IE,r1
 154:	c3 a0 00 00 	ret

00000158 <irq_set_mask>:
 158:	d0 21 00 00 	wcsr IM,r1
 15c:	c3 a0 00 00 	ret

00000160 <irq_get_mask>:
 160:	90 20 08 00 	rcsr r1,IM
 164:	c3 a0 00 00 	ret

00000168 <jump>:
 168:	c0 20 00 00 	b r1

0000016c <halt>:
 16c:	e0 00 00 00 	bi 16c <halt>

00000170 <_save_all>:
 170:	37 9c ff 80 	addi sp,sp,-128
 174:	5b 81 00 04 	sw (sp+4),r1
 178:	5b 82 00 08 	sw (sp+8),r2
 17c:	5b 83 00 0c 	sw (sp+12),r3
 180:	5b 84 00 10 	sw (sp+16),r4
 184:	5b 85 00 14 	sw (sp+20),r5
 188:	5b 86 00 18 	sw (sp+24),r6
 18c:	5b 87 00 1c 	sw (sp+28),r7
 190:	5b 88 00 20 	sw (sp+32),r8
 194:	5b 89 00 24 	sw (sp+36),r9
 198:	5b 8a 00 28 	sw (sp+40),r10
 19c:	5b 9e 00 78 	sw (sp+120),ea
 1a0:	5b 9f 00 7c 	sw (sp+124),ba
 1a4:	2b 81 00 80 	lw r1,(sp+128)
 1a8:	5b 81 00 74 	sw (sp+116),r1
 1ac:	bb 80 08 00 	mv r1,sp
 1b0:	34 21 00 80 	addi r1,r1,128
 1b4:	5b 81 00 70 	sw (sp+112),r1
 1b8:	c3 a0 00 00 	ret

000001bc <_restore_all_and_eret>:
 1bc:	2b 81 00 04 	lw r1,(sp+4)
 1c0:	2b 82 00 08 	lw r2,(sp+8)
 1c4:	2b 83 00 0c 	lw r3,(sp+12)
 1c8:	2b 84 00 10 	lw r4,(sp+16)
 1cc:	2b 85 00 14 	lw r5,(sp+20)
 1d0:	2b 86 00 18 	lw r6,(sp+24)
 1d4:	2b 87 00 1c 	lw r7,(sp+28)
 1d8:	2b 88 00 20 	lw r8,(sp+32)
 1dc:	2b 89 00 24 	lw r9,(sp+36)
 1e0:	2b 8a 00 28 	lw r10,(sp+40)
 1e4:	2b 9d 00 74 	lw ra,(sp+116)
 1e8:	2b 9e 00 78 	lw ea,(sp+120)
 1ec:	2b 9f 00 7c 	lw ba,(sp+124)
 1f0:	2b 9c 00 70 	lw sp,(sp+112)
 1f4:	c3 c0 00 00 	eret

000001f8 <get_sp>:
 1f8:	bb 80 08 00 	mv r1,sp
 1fc:	c3 a0 00 00 	ret

00000200 <get_gp>:
 200:	bb 40 08 00 	mv r1,gp
 204:	c3 a0 00 00 	ret

00000208 <main>:
#include "soc-hw.h"
#include "mdmx.h"


int main()
{
 208:	37 9c ff fc 	addi sp,sp,-4
 20c:	5b 9d 00 04 	sw (sp+4),ra

	config_dmx();
 210:	f8 00 00 d6 	calli 568 <config_dmx>
	for(;;)
	{
		dmx_init_send();      
 214:	f8 00 00 e4 	calli 5a4 <dmx_init_send>
		dmx_channel_send(0xaa);
 218:	34 01 00 aa 	mvi r1,170
 21c:	f8 00 00 ef 	calli 5d8 <dmx_channel_send>
 220:	e3 ff ff fd 	bi 214 <main+0xc>

00000224 <isr_null>:
/***************************************************************************
 * IRQ handling
 */
void isr_null()
{
}
 224:	c3 a0 00 00 	ret

00000228 <tic_isr>:

uint32_t tic_msec;

void tic_isr()
{
	tic_msec++;
 228:	78 01 00 00 	mvhi r1,0x0
 22c:	38 21 07 44 	ori r1,r1,0x744
 230:	28 23 00 00 	lw r3,(r1+0)
	timer0->tcr0     = TIMER_EN | TIMER_AR | TIMER_IRQEN;
 234:	78 02 00 00 	mvhi r2,0x0
 238:	38 42 06 b8 	ori r2,r2,0x6b8
 23c:	28 42 00 00 	lw r2,(r2+0)

uint32_t tic_msec;

void tic_isr()
{
	tic_msec++;
 240:	34 63 00 01 	addi r3,r3,1
 244:	58 23 00 00 	sw (r1+0),r3
	timer0->tcr0     = TIMER_EN | TIMER_AR | TIMER_IRQEN;
 248:	34 01 00 0e 	mvi r1,14
 24c:	58 41 00 00 	sw (r2+0),r1
}
 250:	c3 a0 00 00 	ret

00000254 <prueba>:

void prueba()
{
//	   uart0->rxtx=30;
//	   timer0->tcr0 = 0xAA;
	   gpio0->dir=0x0F; 
 254:	78 01 00 00 	mvhi r1,0x0
 258:	38 21 06 bc 	ori r1,r1,0x6bc
 25c:	28 21 00 00 	lw r1,(r1+0)
 260:	34 02 00 0f 	mvi r2,15
 264:	58 22 00 08 	sw (r1+8),r2
}
 268:	c3 a0 00 00 	ret

0000026c <prueba1>:
void prueba1()
{
           gpio0->write = 0xff;
 26c:	78 01 00 00 	mvhi r1,0x0
 270:	38 21 06 bc 	ori r1,r1,0x6bc
 274:	28 21 00 00 	lw r1,(r1+0)
 278:	34 02 00 ff 	mvi r2,255
 27c:	58 22 00 04 	sw (r1+4),r2
}
 280:	c3 a0 00 00 	ret

00000284 <prueba2>:
void prueba2()
{
           gpio0->write = 0x00;
 284:	78 01 00 00 	mvhi r1,0x0
 288:	38 21 06 bc 	ori r1,r1,0x6bc
 28c:	28 21 00 00 	lw r1,(r1+0)
 290:	58 20 00 04 	sw (r1+4),r0
}
 294:	c3 a0 00 00 	ret

00000298 <irq_handler>:
void isr_null()
{
}

void irq_handler(uint32_t pending)
{
 298:	37 9c ff f0 	addi sp,sp,-16
 29c:	5b 8b 00 10 	sw (sp+16),r11
 2a0:	5b 8c 00 0c 	sw (sp+12),r12
 2a4:	5b 8d 00 08 	sw (sp+8),r13
 2a8:	5b 9d 00 04 	sw (sp+4),ra
 2ac:	78 0b 00 00 	mvhi r11,0x0
 2b0:	39 6b 06 c4 	ori r11,r11,0x6c4
 2b4:	b8 20 60 00 	mv r12,r1
 */
void isr_null()
{
}

void irq_handler(uint32_t pending)
 2b8:	35 6d 00 80 	addi r13,r11,128
 2bc:	e0 00 00 04 	bi 2cc <irq_handler+0x34>
{
	int i;

	for(i=0; i<32; i++) {
		if (pending & 0x01) (*isr_table[i])();
 2c0:	35 6b 00 04 	addi r11,r11,4

void irq_handler(uint32_t pending)
{
	int i;

	for(i=0; i<32; i++) {
 2c4:	45 6d 00 08 	be r11,r13,2e4 <irq_handler+0x4c>
		if (pending & 0x01) (*isr_table[i])();
		pending >>= 1;
 2c8:	01 8c 00 01 	srui r12,r12,1
void irq_handler(uint32_t pending)
{
	int i;

	for(i=0; i<32; i++) {
		if (pending & 0x01) (*isr_table[i])();
 2cc:	21 81 00 01 	andi r1,r12,0x1
 2d0:	44 20 ff fc 	be r1,r0,2c0 <irq_handler+0x28>
 2d4:	29 61 00 00 	lw r1,(r11+0)
 2d8:	35 6b 00 04 	addi r11,r11,4
 2dc:	d8 20 00 00 	call r1

void irq_handler(uint32_t pending)
{
	int i;

	for(i=0; i<32; i++) {
 2e0:	5d 6d ff fa 	bne r11,r13,2c8 <irq_handler+0x30>
		if (pending & 0x01) (*isr_table[i])();
		pending >>= 1;
	}
}
 2e4:	2b 9d 00 04 	lw ra,(sp+4)
 2e8:	2b 8b 00 10 	lw r11,(sp+16)
 2ec:	2b 8c 00 0c 	lw r12,(sp+12)
 2f0:	2b 8d 00 08 	lw r13,(sp+8)
 2f4:	37 9c 00 10 	addi sp,sp,16
 2f8:	c3 a0 00 00 	ret

000002fc <isr_init>:

void isr_init()
{
 2fc:	78 01 00 00 	mvhi r1,0x0
 300:	78 02 00 00 	mvhi r2,0x0
 304:	38 21 06 c4 	ori r1,r1,0x6c4
 308:	38 42 02 24 	ori r2,r2,0x224
		if (pending & 0x01) (*isr_table[i])();
		pending >>= 1;
	}
}

void isr_init()
 30c:	34 23 00 80 	addi r3,r1,128
{
	int i;
	for(i=0; i<32; i++)
		isr_table[i] = &isr_null;
 310:	58 22 00 00 	sw (r1+0),r2
 314:	34 21 00 04 	addi r1,r1,4
}

void isr_init()
{
	int i;
	for(i=0; i<32; i++)
 318:	5c 23 ff fe 	bne r1,r3,310 <isr_init+0x14>
		isr_table[i] = &isr_null;
}
 31c:	c3 a0 00 00 	ret

00000320 <isr_register>:

void isr_register(int irq, isr_ptr_t isr)
{
	isr_table[irq] = isr;
 320:	78 03 00 00 	mvhi r3,0x0
 324:	3c 21 00 02 	sli r1,r1,2
 328:	38 63 06 c4 	ori r3,r3,0x6c4
 32c:	b4 61 18 00 	add r3,r3,r1
 330:	58 62 00 00 	sw (r3+0),r2
}
 334:	c3 a0 00 00 	ret

00000338 <isr_unregister>:

void isr_unregister(int irq)
{
	isr_table[irq] = &isr_null;
 338:	78 03 00 00 	mvhi r3,0x0
 33c:	3c 21 00 02 	sli r1,r1,2
 340:	38 63 06 c4 	ori r3,r3,0x6c4
 344:	78 02 00 00 	mvhi r2,0x0
 348:	b4 61 18 00 	add r3,r3,r1
 34c:	38 42 02 24 	ori r2,r2,0x224
 350:	58 62 00 00 	sw (r3+0),r2
}
 354:	c3 a0 00 00 	ret

00000358 <msleep>:
void msleep(uint32_t msec)
{
	uint32_t tcr;

	// Use timer0.1
	timer0->compare1 = (FCPU/1000)*msec;
 358:	78 04 00 00 	mvhi r4,0x0
 35c:	38 84 06 b0 	ori r4,r4,0x6b0
 360:	28 83 00 00 	lw r3,(r4+0)
 364:	78 02 00 00 	mvhi r2,0x0
 368:	38 42 06 b8 	ori r2,r2,0x6b8
 36c:	28 42 00 00 	lw r2,(r2+0)
 370:	88 23 08 00 	mul r1,r1,r3
 374:	58 41 00 10 	sw (r2+16),r1
	timer0->counter1 = 0;
 378:	58 40 00 14 	sw (r2+20),r0
	timer0->tcr1 = TIMER_EN;
 37c:	34 01 00 08 	mvi r1,8
 380:	58 41 00 0c 	sw (r2+12),r1

	do {
		//halt();
 		tcr = timer0->tcr1;
 384:	28 41 00 0c 	lw r1,(r2+12)
 	} while ( ! (tcr & TIMER_TRIG) );
 388:	20 21 00 01 	andi r1,r1,0x1
 38c:	44 20 ff fe 	be r1,r0,384 <msleep+0x2c>
}
 390:	c3 a0 00 00 	ret

00000394 <nsleep>:
void nsleep(uint32_t nsec)
{
	uint32_t tcr;

	// Use timer0.1
	timer0->compare1 = (FCPU/1000000)*nsec;
 394:	78 02 00 00 	mvhi r2,0x0
 398:	38 42 06 b8 	ori r2,r2,0x6b8
 39c:	28 42 00 00 	lw r2,(r2+0)
 3a0:	08 21 00 64 	muli r1,r1,100
 3a4:	58 41 00 10 	sw (r2+16),r1
	timer0->counter1 = 0;
 3a8:	58 40 00 14 	sw (r2+20),r0
	timer0->tcr1 = TIMER_EN;
 3ac:	34 01 00 08 	mvi r1,8
 3b0:	58 41 00 0c 	sw (r2+12),r1

	do {
		//halt();
 		tcr = timer0->tcr1;
 3b4:	28 41 00 0c 	lw r1,(r2+12)
 	} while ( ! (tcr & TIMER_TRIG) );
 3b8:	20 21 00 01 	andi r1,r1,0x1
 3bc:	44 20 ff fe 	be r1,r0,3b4 <nsleep+0x20>
}
 3c0:	c3 a0 00 00 	ret

000003c4 <tic_init>:
void tic_init()
{
	tic_msec = 0;

	// Setup timer0.0
	timer0->compare0 = (FCPU/10000);
 3c4:	78 01 00 00 	mvhi r1,0x0
 3c8:	38 21 06 b8 	ori r1,r1,0x6b8
 3cc:	28 23 00 00 	lw r3,(r1+0)
 3d0:	34 02 27 10 	mvi r2,10000
	timer0->tcr0     = TIMER_EN | TIMER_AR | TIMER_IRQEN;
}

void tic_init()
{
	tic_msec = 0;
 3d4:	78 01 00 00 	mvhi r1,0x0

	// Setup timer0.0
	timer0->compare0 = (FCPU/10000);
 3d8:	58 62 00 04 	sw (r3+4),r2
	timer0->tcr0     = TIMER_EN | TIMER_AR | TIMER_IRQEN;
}

void tic_init()
{
	tic_msec = 0;
 3dc:	38 21 07 44 	ori r1,r1,0x744

	// Setup timer0.0
	timer0->compare0 = (FCPU/10000);
	timer0->counter0 = 0;
 3e0:	58 60 00 08 	sw (r3+8),r0
	timer0->tcr0     = TIMER_EN | TIMER_AR | TIMER_IRQEN;
}

void tic_init()
{
	tic_msec = 0;
 3e4:	58 20 00 00 	sw (r1+0),r0
		isr_table[i] = &isr_null;
}

void isr_register(int irq, isr_ptr_t isr)
{
	isr_table[irq] = isr;
 3e8:	78 02 00 00 	mvhi r2,0x0
 3ec:	78 01 00 00 	mvhi r1,0x0
	tic_msec = 0;

	// Setup timer0.0
	timer0->compare0 = (FCPU/10000);
	timer0->counter0 = 0;
	timer0->tcr0     = TIMER_EN | TIMER_AR | TIMER_IRQEN;
 3f0:	34 04 00 0e 	mvi r4,14
 3f4:	58 64 00 00 	sw (r3+0),r4
		isr_table[i] = &isr_null;
}

void isr_register(int irq, isr_ptr_t isr)
{
	isr_table[irq] = isr;
 3f8:	38 21 06 c4 	ori r1,r1,0x6c4
 3fc:	38 42 02 28 	ori r2,r2,0x228
 400:	58 22 00 04 	sw (r1+4),r2
	timer0->compare0 = (FCPU/10000);
	timer0->counter0 = 0;
	timer0->tcr0     = TIMER_EN | TIMER_AR | TIMER_IRQEN;

	isr_register(1, &tic_isr);
}
 404:	c3 a0 00 00 	ret

00000408 <uart_init>:
	//uart0->lcr = 0x03;  // Line Control Register:    8N1
	//uart0->mcr = 0x00;  // Modem Control Register

	// Setup Divisor register (Fclk / Baud)
	//uart0->div = (FCPU/(57600*16));
}
 408:	c3 a0 00 00 	ret

0000040c <uart_getchar>:

char uart_getchar()
{   
 40c:	78 01 00 00 	mvhi r1,0x0
 410:	38 21 06 b4 	ori r1,r1,0x6b4
 414:	28 22 00 00 	lw r2,(r1+0)
	while (! (uart0->ucr & UART_DR)) ;
 418:	28 41 00 00 	lw r1,(r2+0)
 41c:	20 21 00 01 	andi r1,r1,0x1
 420:	44 20 ff fe 	be r1,r0,418 <uart_getchar+0xc>
	return uart0->rxtx;
 424:	28 41 00 04 	lw r1,(r2+4)
}
 428:	20 21 00 ff 	andi r1,r1,0xff
 42c:	c3 a0 00 00 	ret

00000430 <uart_putchar>:

void uart_putchar(char c)
{
 430:	78 02 00 00 	mvhi r2,0x0
 434:	38 42 06 b4 	ori r2,r2,0x6b4
 438:	28 43 00 00 	lw r3,(r2+0)
 43c:	20 21 00 ff 	andi r1,r1,0xff
	while (uart0->ucr & UART_BUSY) ;
 440:	28 62 00 00 	lw r2,(r3+0)
 444:	20 42 00 10 	andi r2,r2,0x10
 448:	5c 40 ff fe 	bne r2,r0,440 <uart_putchar+0x10>
	uart0->rxtx = c;
 44c:	58 61 00 04 	sw (r3+4),r1
}
 450:	c3 a0 00 00 	ret

00000454 <uart_putstr>:

void uart_putstr(char *str)
{
	char *c = str;
	while(*c) {
 454:	40 24 00 00 	lbu r4,(r1+0)
 458:	44 80 00 0b 	be r4,r0,484 <uart_putstr+0x30>
 45c:	78 02 00 00 	mvhi r2,0x0
 460:	38 42 06 b4 	ori r2,r2,0x6b4
 464:	28 43 00 00 	lw r3,(r2+0)
	return uart0->rxtx;
}

void uart_putchar(char c)
{
	while (uart0->ucr & UART_BUSY) ;
 468:	28 62 00 00 	lw r2,(r3+0)
 46c:	20 42 00 10 	andi r2,r2,0x10
 470:	5c 40 ff fe 	bne r2,r0,468 <uart_putstr+0x14>
	uart0->rxtx = c;
 474:	58 64 00 04 	sw (r3+4),r4
void uart_putstr(char *str)
{
	char *c = str;
	while(*c) {
		uart_putchar(*c);
		c++;
 478:	34 21 00 01 	addi r1,r1,1
}

void uart_putstr(char *str)
{
	char *c = str;
	while(*c) {
 47c:	40 24 00 00 	lbu r4,(r1+0)
 480:	5c 82 ff fa 	bne r4,r2,468 <uart_putstr+0x14>
 484:	c3 a0 00 00 	ret

00000488 <sleept1>:
#include "mdmx.h"

void sleept1()
{
	uint32_t tcr;
	timer0->counter1 = 0;
 488:	78 01 00 00 	mvhi r1,0x0
 48c:	38 21 06 b8 	ori r1,r1,0x6b8
 490:	28 22 00 00 	lw r2,(r1+0)
	timer0->tcr1 = TIMER_EN;
 494:	34 01 00 08 	mvi r1,8
#include "mdmx.h"

void sleept1()
{
	uint32_t tcr;
	timer0->counter1 = 0;
 498:	58 40 00 14 	sw (r2+20),r0
	timer0->tcr1 = TIMER_EN;
 49c:	58 41 00 0c 	sw (r2+12),r1
	do {
 		tcr = timer0->tcr1;
 4a0:	28 41 00 0c 	lw r1,(r2+12)
 	} while ( ! (tcr & TIMER_TRIG) );
 4a4:	20 21 00 01 	andi r1,r1,0x1
 4a8:	44 20 ff fe 	be r1,r0,4a0 <sleept1+0x18>
}
 4ac:	c3 a0 00 00 	ret

000004b0 <set_pin>:

void set_pin(uint8_t pin_act)
{
 4b0:	20 21 00 ff 	andi r1,r1,0xff
        if (pin_act)
 4b4:	5c 20 00 08 	bne r1,r0,4d4 <set_pin+0x24>
		gpio0->write = gpio0->read & (~DMX_PIN);
	else
		gpio0->write = gpio0->read | DMX_PIN;
 4b8:	78 01 00 00 	mvhi r1,0x0
 4bc:	38 21 06 bc 	ori r1,r1,0x6bc
 4c0:	28 21 00 00 	lw r1,(r1+0)
 4c4:	28 22 00 00 	lw r2,(r1+0)
 4c8:	38 42 00 01 	ori r2,r2,0x1
 4cc:	58 22 00 04 	sw (r1+4),r2
 4d0:	c3 a0 00 00 	ret
}

void set_pin(uint8_t pin_act)
{
        if (pin_act)
		gpio0->write = gpio0->read & (~DMX_PIN);
 4d4:	78 01 00 00 	mvhi r1,0x0
 4d8:	38 21 06 bc 	ori r1,r1,0x6bc
 4dc:	28 21 00 00 	lw r1,(r1+0)
 4e0:	34 02 ff fe 	mvi r2,-2
 4e4:	28 23 00 00 	lw r3,(r1+0)
 4e8:	a0 62 10 00 	and r2,r3,r2
 4ec:	58 22 00 04 	sw (r1+4),r2
 4f0:	c3 a0 00 00 	ret

000004f4 <pin_inv>:
}
void pin_inv(uint32_t num)
{
	uint32_t i;
	uint32_t pin_act;
	pin_act = gpio0->read & DMX_PIN;
 4f4:	78 02 00 00 	mvhi r2,0x0
 4f8:	38 42 06 bc 	ori r2,r2,0x6bc
 4fc:	28 42 00 00 	lw r2,(r2+0)
 500:	28 43 00 00 	lw r3,(r2+0)
 	} while ( ! (tcr & TIMER_TRIG) );
}

void set_pin(uint8_t pin_act)
{
        if (pin_act)
 504:	20 63 00 01 	andi r3,r3,0x1
 508:	44 60 00 13 	be r3,r0,554 <pin_inv+0x60>
		gpio0->write = gpio0->read & (~DMX_PIN);
 50c:	28 44 00 00 	lw r4,(r2+0)
 510:	34 03 ff fe 	mvi r3,-2
 514:	a0 83 18 00 	and r3,r4,r3
 518:	58 43 00 04 	sw (r2+4),r3
{
	uint32_t i;
	uint32_t pin_act;
	pin_act = gpio0->read & DMX_PIN;
        set_pin(pin_act);
	for(i=0;i<num;i++)
 51c:	44 20 00 12 	be r1,r0,564 <pin_inv+0x70>
void set_pin(uint8_t pin_act)
{
        if (pin_act)
		gpio0->write = gpio0->read & (~DMX_PIN);
	else
		gpio0->write = gpio0->read | DMX_PIN;
 520:	78 02 00 00 	mvhi r2,0x0
 524:	38 42 06 b8 	ori r2,r2,0x6b8
 528:	28 43 00 00 	lw r3,(r2+0)
{
	uint32_t i;
	uint32_t pin_act;
	pin_act = gpio0->read & DMX_PIN;
        set_pin(pin_act);
	for(i=0;i<num;i++)
 52c:	34 04 00 00 	mvi r4,0

void sleept1()
{
	uint32_t tcr;
	timer0->counter1 = 0;
	timer0->tcr1 = TIMER_EN;
 530:	34 05 00 08 	mvi r5,8
#include "mdmx.h"

void sleept1()
{
	uint32_t tcr;
	timer0->counter1 = 0;
 534:	58 60 00 14 	sw (r3+20),r0
	timer0->tcr1 = TIMER_EN;
 538:	58 65 00 0c 	sw (r3+12),r5
	do {
 		tcr = timer0->tcr1;
 53c:	28 62 00 0c 	lw r2,(r3+12)
 	} while ( ! (tcr & TIMER_TRIG) );
 540:	20 42 00 01 	andi r2,r2,0x1
 544:	44 40 ff fe 	be r2,r0,53c <pin_inv+0x48>
{
	uint32_t i;
	uint32_t pin_act;
	pin_act = gpio0->read & DMX_PIN;
        set_pin(pin_act);
	for(i=0;i<num;i++)
 548:	34 84 00 01 	addi r4,r4,1
 54c:	54 24 ff fa 	bgu r1,r4,534 <pin_inv+0x40>
 550:	c3 a0 00 00 	ret
void set_pin(uint8_t pin_act)
{
        if (pin_act)
		gpio0->write = gpio0->read & (~DMX_PIN);
	else
		gpio0->write = gpio0->read | DMX_PIN;
 554:	28 43 00 00 	lw r3,(r2+0)
 558:	38 63 00 01 	ori r3,r3,0x1
 55c:	58 43 00 04 	sw (r2+4),r3
{
	uint32_t i;
	uint32_t pin_act;
	pin_act = gpio0->read & DMX_PIN;
        set_pin(pin_act);
	for(i=0;i<num;i++)
 560:	5c 20 ff f0 	bne r1,r0,520 <pin_inv+0x2c>
 564:	c3 a0 00 00 	ret

00000568 <config_dmx>:


void config_dmx()
{
//configurar pin DMX_PIN como pin de salida 
	gpio0->dir |= DMX_PIN;
 568:	78 01 00 00 	mvhi r1,0x0
 56c:	38 21 06 bc 	ori r1,r1,0x6bc
 570:	28 21 00 00 	lw r1,(r1+0)
    //   gpio0->dir = gpio0->dir  | DMX_PIN;
    // config Use timer 1
	timer0->compare1 = (FCPU/1000000)*(TBIT); // for usecond
 574:	78 02 00 00 	mvhi r2,0x0
 578:	38 42 06 b8 	ori r2,r2,0x6b8


void config_dmx()
{
//configurar pin DMX_PIN como pin de salida 
	gpio0->dir |= DMX_PIN;
 57c:	28 23 00 08 	lw r3,(r1+8)
    //   gpio0->dir = gpio0->dir  | DMX_PIN;
    // config Use timer 1
	timer0->compare1 = (FCPU/1000000)*(TBIT); // for usecond
 580:	28 42 00 00 	lw r2,(r2+0)


void config_dmx()
{
//configurar pin DMX_PIN como pin de salida 
	gpio0->dir |= DMX_PIN;
 584:	38 63 00 01 	ori r3,r3,0x1
 588:	58 23 00 08 	sw (r1+8),r3
    //   gpio0->dir = gpio0->dir  | DMX_PIN;
    // config Use timer 1
	timer0->compare1 = (FCPU/1000000)*(TBIT); // for usecond
 58c:	34 03 01 90 	mvi r3,400
 590:	58 43 00 10 	sw (r2+16),r3
	gpio0->write = gpio0->read | DMX_PIN;
 594:	28 22 00 00 	lw r2,(r1+0)
 598:	38 42 00 01 	ori r2,r2,0x1
 59c:	58 22 00 04 	sw (r1+4),r2
 
}
 5a0:	c3 a0 00 00 	ret

000005a4 <dmx_init_send>:

void dmx_init_send()
{
 5a4:	37 9c ff fc 	addi sp,sp,-4
 5a8:	5b 9d 00 04 	sw (sp+4),ra
	pin_inv(22);
 5ac:	34 01 00 16 	mvi r1,22
 5b0:	fb ff ff d1 	calli 4f4 <pin_inv>
	pin_inv(2);
 5b4:	34 01 00 02 	mvi r1,2
 5b8:	fb ff ff cf 	calli 4f4 <pin_inv>
	pin_inv(9);
 5bc:	34 01 00 09 	mvi r1,9
 5c0:	fb ff ff cd 	calli 4f4 <pin_inv>
        pin_inv(2);
 5c4:	34 01 00 02 	mvi r1,2
 5c8:	fb ff ff cb 	calli 4f4 <pin_inv>
 }
 5cc:	2b 9d 00 04 	lw ra,(sp+4)
 5d0:	37 9c 00 04 	addi sp,sp,4
 5d4:	c3 a0 00 00 	ret

000005d8 <dmx_channel_send>:


void dmx_channel_send(uint8_t value)
{
 5d8:	37 9c ff f8 	addi sp,sp,-8
 5dc:	5b 8b 00 08 	sw (sp+8),r11
 5e0:	5b 9d 00 04 	sw (sp+4),ra
 5e4:	20 2b 00 ff 	andi r11,r1,0xff
	uint8_t bit, i;
       pin_inv(1); // bita start
 5e8:	34 01 00 01 	mvi r1,1
 5ec:	fb ff ff c2 	calli 4f4 <pin_inv>
 5f0:	78 02 00 00 	mvhi r2,0x0
 5f4:	78 01 00 00 	mvhi r1,0x0
 5f8:	38 42 06 b8 	ori r2,r2,0x6b8
 5fc:	38 21 06 bc 	ori r1,r1,0x6bc
 	} while ( ! (tcr & TIMER_TRIG) );
}

void set_pin(uint8_t pin_act)
{
        if (pin_act)
 600:	21 63 00 01 	andi r3,r11,0x1


void dmx_channel_send(uint8_t value)
{
	uint8_t bit, i;
       pin_inv(1); // bita start
 604:	28 42 00 00 	lw r2,(r2+0)
 608:	28 21 00 00 	lw r1,(r1+0)
 60c:	34 04 00 08 	mvi r4,8
}

void set_pin(uint8_t pin_act)
{
        if (pin_act)
		gpio0->write = gpio0->read & (~DMX_PIN);
 610:	34 06 ff fe 	mvi r6,-2

void sleept1()
{
	uint32_t tcr;
	timer0->counter1 = 0;
	timer0->tcr1 = TIMER_EN;
 614:	34 05 00 08 	mvi r5,8
 	} while ( ! (tcr & TIMER_TRIG) );
}

void set_pin(uint8_t pin_act)
{
        if (pin_act)
 618:	44 60 00 0f 	be r3,r0,654 <dmx_channel_send+0x7c>
		gpio0->write = gpio0->read & (~DMX_PIN);
 61c:	28 23 00 00 	lw r3,(r1+0)
 620:	a0 66 18 00 	and r3,r3,r6
 624:	58 23 00 04 	sw (r1+4),r3
#include "mdmx.h"

void sleept1()
{
	uint32_t tcr;
	timer0->counter1 = 0;
 628:	58 40 00 14 	sw (r2+20),r0
	timer0->tcr1 = TIMER_EN;
 62c:	58 45 00 0c 	sw (r2+12),r5
	do {
 		tcr = timer0->tcr1;
 630:	28 43 00 0c 	lw r3,(r2+12)
 	} while ( ! (tcr & TIMER_TRIG) );
 634:	20 63 00 01 	andi r3,r3,0x1
 638:	44 60 ff fe 	be r3,r0,630 <dmx_channel_send+0x58>
 63c:	34 84 ff ff 	addi r4,r4,-1
 640:	20 84 00 ff 	andi r4,r4,0xff
void dmx_channel_send(uint8_t value)
{
	uint8_t bit, i;
       pin_inv(1); // bita start
 	//nsleep(4000);
	for(i=0;i<8;i++)
 644:	44 80 00 08 	be r4,r0,664 <dmx_channel_send+0x8c>
	{
		bit=value & 0x01;
 		set_pin(bit);	
		value=value>>1;
 648:	01 6b 00 01 	srui r11,r11,1
 	} while ( ! (tcr & TIMER_TRIG) );
}

void set_pin(uint8_t pin_act)
{
        if (pin_act)
 64c:	21 63 00 01 	andi r3,r11,0x1
 650:	5c 60 ff f3 	bne r3,r0,61c <dmx_channel_send+0x44>
		gpio0->write = gpio0->read & (~DMX_PIN);
	else
		gpio0->write = gpio0->read | DMX_PIN;
 654:	28 23 00 00 	lw r3,(r1+0)
 658:	38 63 00 01 	ori r3,r3,0x1
 65c:	58 23 00 04 	sw (r1+4),r3
 660:	e3 ff ff f2 	bi 628 <dmx_channel_send+0x50>
		bit=value & 0x01;
 		set_pin(bit);	
		value=value>>1;
		sleept1();
        }
	gpio0->write = gpio0->read | DMX_PIN;
 664:	28 23 00 00 	lw r3,(r1+0)
 668:	38 63 00 01 	ori r3,r3,0x1
 66c:	58 23 00 04 	sw (r1+4),r3
#include "mdmx.h"

void sleept1()
{
	uint32_t tcr;
	timer0->counter1 = 0;
 670:	58 40 00 14 	sw (r2+20),r0
	timer0->tcr1 = TIMER_EN;
 674:	34 01 00 08 	mvi r1,8
 678:	58 41 00 0c 	sw (r2+12),r1
	do {
 		tcr = timer0->tcr1;
 67c:	28 41 00 0c 	lw r1,(r2+12)
 	} while ( ! (tcr & TIMER_TRIG) );
 680:	20 21 00 01 	andi r1,r1,0x1
 684:	44 20 ff fe 	be r1,r0,67c <dmx_channel_send+0xa4>
#include "mdmx.h"

void sleept1()
{
	uint32_t tcr;
	timer0->counter1 = 0;
 688:	58 40 00 14 	sw (r2+20),r0
	timer0->tcr1 = TIMER_EN;
 68c:	34 01 00 08 	mvi r1,8
 690:	58 41 00 0c 	sw (r2+12),r1
	do {
 		tcr = timer0->tcr1;
 694:	28 41 00 0c 	lw r1,(r2+12)
 	} while ( ! (tcr & TIMER_TRIG) );
 698:	20 21 00 01 	andi r1,r1,0x1
 69c:	44 20 ff fe 	be r1,r0,694 <dmx_channel_send+0xbc>
	gpio0->write = gpio0->read | DMX_PIN;
	sleept1();
	sleept1();
 

}
 6a0:	2b 9d 00 04 	lw ra,(sp+4)
 6a4:	2b 8b 00 08 	lw r11,(sp+8)
 6a8:	37 9c 00 08 	addi sp,sp,8
 6ac:	c3 a0 00 00 	ret
