
Allocating common symbols
Common symbol       size              file

isr_table           0x80              soc-hw.o
tic_msec            0x4               soc-hw.o

Memory Configuration

Name             Origin             Length             Attributes
ram              0x0000000000000000 0x0000000000001000
*default*        0x0000000000000000 0xffffffffffffffff

Linker script and memory map

                0x0000000000000000                __DYNAMIC = 0x0
                0x0000000000000000                _RAM_START = 0x0
                0x0000000000001000                _RAM_SIZE = 0x1000
                0x0000000000001000                _RAM_END = (_RAM_START + _RAM_SIZE)

.text           0x0000000000000000      0x6b0
                0x0000000000000000                _ftext = .
 *(.text .stub .text.* .gnu.linkonce.t.*)
 .text          0x0000000000000000      0x208 crt0ram.o
                0x0000000000000000                _start
                0x0000000000000140                irq_enable
                0x000000000000014c                irq_disable
                0x0000000000000158                irq_set_mask
                0x0000000000000160                irq_get_mask
                0x0000000000000168                jump
                0x000000000000016c                halt
                0x00000000000001f8                get_sp
                0x0000000000000200                get_gp
 .text          0x0000000000000208       0x1c main.o
                0x0000000000000208                main
 .text          0x0000000000000224      0x264 soc-hw.o
                0x0000000000000224                isr_null
                0x0000000000000228                tic_isr
                0x0000000000000254                prueba
                0x000000000000026c                prueba1
                0x0000000000000284                prueba2
                0x0000000000000298                irq_handler
                0x00000000000002fc                isr_init
                0x0000000000000320                isr_register
                0x0000000000000338                isr_unregister
                0x0000000000000358                msleep
                0x0000000000000394                nsleep
                0x00000000000003c4                tic_init
                0x0000000000000408                uart_init
                0x000000000000040c                uart_getchar
                0x0000000000000430                uart_putchar
                0x0000000000000454                uart_putstr
 .text          0x0000000000000488      0x228 mdmx.o
                0x0000000000000488                sleept1
                0x00000000000004b0                set_pin
                0x00000000000004f4                pin_inv
                0x0000000000000568                config_dmx
                0x00000000000005a4                dmx_init_send
                0x00000000000005d8                dmx_channel_send
                0x00000000000006b0                _etext = .

.rodata         0x00000000000006b0        0x4
                0x00000000000006b0                . = ALIGN (0x4)
                0x00000000000006b0                _frodata = .
 *(.rodata .rodata.* .gnu.linkonce.r.*)
 .rodata.cst4   0x00000000000006b0        0x4 soc-hw.o
 *(.rodata1)
                0x00000000000006b4                _erodata = .

.data           0x00000000000006b4       0x10
                0x00000000000006b4                . = ALIGN (0x4)
                0x00000000000006b4                _fdata = .
 *(.data .data.* .gnu.linkonce.d.*)
 .data          0x00000000000006b4        0x0 crt0ram.o
 .data          0x00000000000006b4        0x0 main.o
 .data          0x00000000000006b4       0x10 soc-hw.o
                0x00000000000006b4                uart0
                0x00000000000006b8                timer0
                0x00000000000006bc                gpio0
                0x00000000000006c0                spi0
 .data          0x00000000000006c4        0x0 mdmx.o
 *(.data1)
                0x00000000000006d0                _gp = ALIGN (0x10)
 *(.sdata .sdata.* .gnu.linkonce.s.*)
                0x00000000000006c4                _edata = .

.bss            0x00000000000006c4       0x84
                0x00000000000006c4                . = ALIGN (0x4)
                0x00000000000006c4                _fbss = .
 *(.dynsbss)
 *(.sbss .sbss.* .gnu.linkonce.sb.*)
 *(.scommon)
 *(.dynbss)
 *(.bss .bss.* .gnu.linkonce.b.*)
 .bss           0x00000000000006c4        0x0 crt0ram.o
 .bss           0x00000000000006c4        0x0 main.o
 .bss           0x00000000000006c4        0x0 soc-hw.o
 .bss           0x00000000000006c4        0x0 mdmx.o
 *(COMMON)
 COMMON         0x00000000000006c4       0x84 soc-hw.o
                0x00000000000006c4                isr_table
                0x0000000000000744                tic_msec
                0x0000000000000748                _ebss = .
                0x0000000000000748                _end = .
                0x0000000000000ffc                PROVIDE (_fstack, ((ORIGIN (ram) + 0x1000) - 0x4))
LOAD crt0ram.o
LOAD main.o
LOAD soc-hw.o
LOAD mdmx.o
OUTPUT(image elf32-lm32)

.debug_abbrev   0x0000000000000000      0x36c
 .debug_abbrev  0x0000000000000000       0x3f main.o
 .debug_abbrev  0x000000000000003f      0x19d soc-hw.o
 .debug_abbrev  0x00000000000001dc      0x190 mdmx.o

.debug_info     0x0000000000000000      0x86e
 .debug_info    0x0000000000000000       0x59 main.o
 .debug_info    0x0000000000000059      0x4f1 soc-hw.o
 .debug_info    0x000000000000054a      0x324 mdmx.o

.debug_line     0x0000000000000000      0x59d
 .debug_line    0x0000000000000000       0x4e main.o
 .debug_line    0x000000000000004e      0x2d3 soc-hw.o
 .debug_line    0x0000000000000321      0x27c mdmx.o

.debug_frame    0x0000000000000000      0x1a0
 .debug_frame   0x0000000000000000       0x20 main.o
 .debug_frame   0x0000000000000020      0x110 soc-hw.o
 .debug_frame   0x0000000000000130       0x70 mdmx.o

.debug_pubnames
                0x0000000000000000      0x1bc
 .debug_pubnames
                0x0000000000000000       0x1b main.o
 .debug_pubnames
                0x000000000000001b      0x135 soc-hw.o
 .debug_pubnames
                0x0000000000000150       0x6c mdmx.o

.debug_pubtypes
                0x0000000000000000       0xad
 .debug_pubtypes
                0x0000000000000000       0x12 main.o
 .debug_pubtypes
                0x0000000000000012       0x59 soc-hw.o
 .debug_pubtypes
                0x000000000000006b       0x42 mdmx.o

.debug_aranges  0x0000000000000000       0x60
 .debug_aranges
                0x0000000000000000       0x20 main.o
 .debug_aranges
                0x0000000000000020       0x20 soc-hw.o
 .debug_aranges
                0x0000000000000040       0x20 mdmx.o

.debug_str      0x0000000000000000      0x210
 .debug_str     0x0000000000000000       0x51 main.o
                                         0x5d (size before relaxing)
 .debug_str     0x0000000000000051      0x160 soc-hw.o
                                        0x1bb (size before relaxing)
 .debug_str     0x00000000000001b1       0x5f mdmx.o
                                        0x10e (size before relaxing)

.comment        0x0000000000000000       0x11
 .comment       0x0000000000000000       0x11 main.o
                                         0x12 (size before relaxing)
 .comment       0x0000000000000000       0x12 soc-hw.o
 .comment       0x0000000000000000       0x12 mdmx.o

.debug_loc      0x0000000000000000      0x26d
 .debug_loc     0x0000000000000000       0xfc soc-hw.o
 .debug_loc     0x00000000000000fc      0x171 mdmx.o

.debug_ranges   0x0000000000000000       0x90
 .debug_ranges  0x0000000000000000       0x18 soc-hw.o
 .debug_ranges  0x0000000000000018       0x78 mdmx.o
